target datalayout = "e-m:e-p270:32:32-p271:32:32-p272:64:64-i64:64-i128:128-f80:128-n8:16:32:64-S128"
target triple = "x86_64-pc-linux-gnu"

%struct.GetBitContext = type { ptr, ptr, i32, i32, i32 }
%struct.JXLHybridUintConf = type { i32, i32, i32 }

; Function Attrs: inlinehint nounwind willreturn memory(none) uwtable
define internal i32 @zero_extend(i32 noundef %0, i32 noundef %1) #6 {
  %3 = alloca i32, align 4
  %4 = alloca i32, align 4
  store i32 %0, ptr %3, align 4, !tbaa !18
  store i32 %1, ptr %4, align 4, !tbaa !18
  %5 = load i32, ptr %3, align 4, !tbaa !18
  %6 = load i32, ptr %4, align 4, !tbaa !18
  %7 = zext i32 %6 to i64
  %8 = sub i64 32, %7
  %9 = trunc i64 %8 to i32
  %10 = shl i32 %5, %9
  %11 = load i32, ptr %4, align 4, !tbaa !18
  %12 = zext i32 %11 to i64
  %13 = sub i64 32, %12
  %14 = trunc i64 %13 to i32
  %15 = lshr i32 %10, %14
  ret i32 %15
}

; Function Attrs: inlinehint nounwind uwtable
define internal i32 @get_bits(ptr noundef %0, i32 noundef %1) #4 {
  %3 = alloca ptr, align 8
  %4 = alloca i32, align 4
  %5 = alloca i32, align 4
  %6 = alloca i32, align 4
  %7 = alloca i32, align 4
  %8 = alloca i32, align 4
  store ptr %0, ptr %3, align 8, !tbaa !77
  store i32 %1, ptr %4, align 4, !tbaa !18
  call void @llvm.lifetime.start.p0(i64 4, ptr %5) #9
  call void @llvm.lifetime.start.p0(i64 4, ptr %6) #9
  %9 = load ptr, ptr %3, align 8, !tbaa !77
  %10 = getelementptr inbounds nuw %struct.GetBitContext, ptr %9, i32 0, i32 2
  %11 = load i32, ptr %10, align 8, !tbaa !79
  store i32 %11, ptr %6, align 4, !tbaa !18
  call void @llvm.lifetime.start.p0(i64 4, ptr %7) #9
  call void @llvm.lifetime.start.p0(i64 4, ptr %8) #9
  %12 = load ptr, ptr %3, align 8, !tbaa !77
  %13 = getelementptr inbounds nuw %struct.GetBitContext, ptr %12, i32 0, i32 4
  %14 = load i32, ptr %13, align 8, !tbaa !81
  store i32 %14, ptr %8, align 4, !tbaa !18
  %15 = load ptr, ptr %3, align 8, !tbaa !77
  %16 = getelementptr inbounds nuw %struct.GetBitContext, ptr %15, i32 0, i32 0
  %17 = load ptr, ptr %16, align 8, !tbaa !85
  %18 = load i32, ptr %6, align 4, !tbaa !18
  %19 = lshr i32 %18, 3
  %20 = zext i32 %19 to i64
  %21 = getelementptr inbounds nuw i8, ptr %17, i64 %20
  %22 = load i32, ptr %21, align 1, !tbaa !43
  %23 = load i32, ptr %6, align 4, !tbaa !18
  %24 = and i32 %23, 7
  %25 = lshr i32 %22, %24
  store i32 %25, ptr %7, align 4, !tbaa !18
  %26 = load i32, ptr %7, align 4, !tbaa !18
  %27 = load i32, ptr %4, align 4, !tbaa !18
  %28 = call i32 @zero_extend(i32 noundef %26, i32 noundef %27) #10
  store i32 %28, ptr %5, align 4, !tbaa !18
  %29 = load i32, ptr %8, align 4, !tbaa !18
  %30 = load i32, ptr %6, align 4, !tbaa !18
  %31 = load i32, ptr %4, align 4, !tbaa !18
  %32 = add i32 %30, %31
  %33 = icmp ugt i32 %29, %32
  br i1 %33, label %34, label %38

34:                                               ; preds = %2
  %35 = load i32, ptr %6, align 4, !tbaa !18
  %36 = load i32, ptr %4, align 4, !tbaa !18
  %37 = add i32 %35, %36
  br label %40

38:                                               ; preds = %2
  %39 = load i32, ptr %8, align 4, !tbaa !18
  br label %40

40:                                               ; preds = %38, %34
  %41 = phi i32 [ %37, %34 ], [ %39, %38 ]
  store i32 %41, ptr %6, align 4, !tbaa !18
  %42 = load i32, ptr %6, align 4, !tbaa !18
  %43 = load ptr, ptr %3, align 8, !tbaa !77
  %44 = getelementptr inbounds nuw %struct.GetBitContext, ptr %43, i32 0, i32 2
  store i32 %42, ptr %44, align 8, !tbaa !79
  %45 = load i32, ptr %5, align 4, !tbaa !18
  call void @llvm.lifetime.end.p0(i64 4, ptr %8) #9
  call void @llvm.lifetime.end.p0(i64 4, ptr %7) #9
  call void @llvm.lifetime.end.p0(i64 4, ptr %6) #9
  call void @llvm.lifetime.end.p0(i64 4, ptr %5) #9
  ret i32 %45
}

; Function Attrs: inlinehint nounwind uwtable
define internal i32 @get_bits_long(ptr noundef %0, i32 noundef %1) #4 {
  %3 = alloca i32, align 4
  %4 = alloca ptr, align 8
  %5 = alloca i32, align 4
  %6 = alloca i32, align 4
  store ptr %0, ptr %4, align 8, !tbaa !77
  store i32 %1, ptr %5, align 4, !tbaa !18
  %7 = load i32, ptr %5, align 4, !tbaa !18
  %8 = icmp ne i32 %7, 0
  br i1 %8, label %10, label %9

9:                                                ; preds = %2
  store i32 0, ptr %3, align 4
  br label %27

10:                                               ; preds = %2
  %11 = load i32, ptr %5, align 4, !tbaa !18
  %12 = icmp sle i32 %11, 25
  br i1 %12, label %13, label %17

13:                                               ; preds = %10
  %14 = load ptr, ptr %4, align 8, !tbaa !77
  %15 = load i32, ptr %5, align 4, !tbaa !18
  %16 = call i32 @get_bits(ptr noundef %14, i32 noundef %15)
  store i32 %16, ptr %3, align 4
  br label %27

17:                                               ; preds = %10
  call void @llvm.lifetime.start.p0(i64 4, ptr %6) #9
  %18 = load ptr, ptr %4, align 8, !tbaa !77
  %19 = call i32 @get_bits(ptr noundef %18, i32 noundef 16)
  store i32 %19, ptr %6, align 4, !tbaa !18
  %20 = load i32, ptr %6, align 4, !tbaa !18
  %21 = load ptr, ptr %4, align 8, !tbaa !77
  %22 = load i32, ptr %5, align 4, !tbaa !18
  %23 = sub nsw i32 %22, 16
  %24 = call i32 @get_bits(ptr noundef %21, i32 noundef %23)
  %25 = shl i32 %24, 16
  %26 = or i32 %20, %25
  store i32 %26, ptr %3, align 4
  call void @llvm.lifetime.end.p0(i64 4, ptr %6) #9
  br label %27

27:                                               ; preds = %17, %13, %9
  %28 = load i32, ptr %3, align 4
  ret i32 %28
}

; Function Attrs: nounwind uwtable
define internal i32 @read_hybrid_uint(ptr noundef %0, ptr noundef %1, i32 noundef %2, ptr noundef %3) #0 {
  %5 = alloca i32, align 4
  %6 = alloca ptr, align 8
  %7 = alloca ptr, align 8
  %8 = alloca i32, align 4
  %9 = alloca ptr, align 8
  %10 = alloca i32, align 4
  %11 = alloca i32, align 4
  %12 = alloca i32, align 4
  %13 = alloca i32, align 4
  store ptr %0, ptr %6, align 8, !tbaa !77
  store ptr %1, ptr %7, align 8, !tbaa !136
  store i32 %2, ptr %8, align 4, !tbaa !18
  store ptr %3, ptr %9, align 8, !tbaa !14
  call void @llvm.lifetime.start.p0(i64 4, ptr %10) #9
  call void @llvm.lifetime.start.p0(i64 4, ptr %11) #9
  call void @llvm.lifetime.start.p0(i64 4, ptr %12) #9
  %14 = load ptr, ptr %7, align 8, !tbaa !136
  %15 = getelementptr inbounds nuw %struct.JXLHybridUintConf, ptr %14, i32 0, i32 0
  %16 = load i32, ptr %15, align 4, !tbaa !138
  %17 = shl i32 1, %16
  store i32 %17, ptr %12, align 4, !tbaa !18
  %18 = load i32, ptr %8, align 4, !tbaa !18
  %19 = load i32, ptr %12, align 4, !tbaa !18
  %20 = icmp ult i32 %18, %19
  br i1 %20, label %21, label %24

21:                                               ; preds = %4
  %22 = load i32, ptr %8, align 4, !tbaa !18
  %23 = load ptr, ptr %9, align 8, !tbaa !14
  store i32 %22, ptr %23, align 4, !tbaa !18
  store i32 0, ptr %5, align 4
  store i32 1, ptr %13, align 4
  br label %91

24:                                               ; preds = %4
  %25 = load ptr, ptr %7, align 8, !tbaa !136
  %26 = getelementptr inbounds nuw %struct.JXLHybridUintConf, ptr %25, i32 0, i32 0
  %27 = load i32, ptr %26, align 4, !tbaa !138
  %28 = load ptr, ptr %7, align 8, !tbaa !136
  %29 = getelementptr inbounds nuw %struct.JXLHybridUintConf, ptr %28, i32 0, i32 2
  %30 = load i32, ptr %29, align 4, !tbaa !139
  %31 = sub i32 %27, %30
  %32 = load ptr, ptr %7, align 8, !tbaa !136
  %33 = getelementptr inbounds nuw %struct.JXLHybridUintConf, ptr %32, i32 0, i32 1
  %34 = load i32, ptr %33, align 4, !tbaa !140
  %35 = sub i32 %31, %34
  %36 = load i32, ptr %8, align 4, !tbaa !18
  %37 = load i32, ptr %12, align 4, !tbaa !18
  %38 = sub i32 %36, %37
  %39 = load ptr, ptr %7, align 8, !tbaa !136
  %40 = getelementptr inbounds nuw %struct.JXLHybridUintConf, ptr %39, i32 0, i32 1
  %41 = load i32, ptr %40, align 4, !tbaa !140
  %42 = load ptr, ptr %7, align 8, !tbaa !136
  %43 = getelementptr inbounds nuw %struct.JXLHybridUintConf, ptr %42, i32 0, i32 2
  %44 = load i32, ptr %43, align 4, !tbaa !139
  %45 = add i32 %41, %44
  %46 = lshr i32 %38, %45
  %47 = add i32 %35, %46
  store i32 %47, ptr %10, align 4, !tbaa !18
  %48 = load i32, ptr %10, align 4, !tbaa !18
  %49 = icmp uge i32 %48, 32
  br i1 %49, label %50, label %51

50:                                               ; preds = %24
  store i32 -1094995529, ptr %5, align 4
  store i32 1, ptr %13, align 4
  br label %91

51:                                               ; preds = %24
  %52 = load i32, ptr %8, align 4, !tbaa !18
  %53 = load ptr, ptr %7, align 8, !tbaa !136
  %54 = getelementptr inbounds nuw %struct.JXLHybridUintConf, ptr %53, i32 0, i32 2
  %55 = load i32, ptr %54, align 4, !tbaa !139
  %56 = shl i32 1, %55
  %57 = sub nsw i32 %56, 1
  %58 = and i32 %52, %57
  store i32 %58, ptr %11, align 4, !tbaa !18
  %59 = load ptr, ptr %7, align 8, !tbaa !136
  %60 = getelementptr inbounds nuw %struct.JXLHybridUintConf, ptr %59, i32 0, i32 2
  %61 = load i32, ptr %60, align 4, !tbaa !139
  %62 = load i32, ptr %8, align 4, !tbaa !18
  %63 = lshr i32 %62, %61
  store i32 %63, ptr %8, align 4, !tbaa !18
  %64 = load ptr, ptr %7, align 8, !tbaa !136
  %65 = getelementptr inbounds nuw %struct.JXLHybridUintConf, ptr %64, i32 0, i32 1
  %66 = load i32, ptr %65, align 4, !tbaa !140
  %67 = shl i32 1, %66
  %68 = sub nsw i32 %67, 1
  %69 = load i32, ptr %8, align 4, !tbaa !18
  %70 = and i32 %69, %68
  store i32 %70, ptr %8, align 4, !tbaa !18
  %71 = load ptr, ptr %7, align 8, !tbaa !136
  %72 = getelementptr inbounds nuw %struct.JXLHybridUintConf, ptr %71, i32 0, i32 1
  %73 = load i32, ptr %72, align 4, !tbaa !140
  %74 = shl i32 1, %73
  %75 = load i32, ptr %8, align 4, !tbaa !18
  %76 = or i32 %75, %74
  store i32 %76, ptr %8, align 4, !tbaa !18
  %77 = load i32, ptr %8, align 4, !tbaa !18
  %78 = load i32, ptr %10, align 4, !tbaa !18
  %79 = shl i32 %77, %78
  %80 = load ptr, ptr %6, align 8, !tbaa !77
  %81 = load i32, ptr %10, align 4, !tbaa !18
  %82 = call i32 @get_bits_long(ptr noundef %80, i32 noundef %81)
  %83 = or i32 %79, %82
  %84 = load ptr, ptr %7, align 8, !tbaa !136
  %85 = getelementptr inbounds nuw %struct.JXLHybridUintConf, ptr %84, i32 0, i32 2
  %86 = load i32, ptr %85, align 4, !tbaa !139
  %87 = shl i32 %83, %86
  %88 = load i32, ptr %11, align 4, !tbaa !18
  %89 = or i32 %87, %88
  %90 = load ptr, ptr %9, align 8, !tbaa !14
  store i32 %89, ptr %90, align 4, !tbaa !18
  store i32 0, ptr %5, align 4
  store i32 1, ptr %13, align 4
  br label %91

91:                                               ; preds = %51, %50, %21
  call void @llvm.lifetime.end.p0(i64 4, ptr %12) #9
  call void @llvm.lifetime.end.p0(i64 4, ptr %11) #9
  call void @llvm.lifetime.end.p0(i64 4, ptr %10) #9
  %92 = load i32, ptr %5, align 4
  ret i32 %92
}