; Function Attrs: mustprogress nofree norecurse nosync nounwind willreturn memory(read, argmem: readwrite, inaccessiblemem: none) uwtable
define internal fastcc range(i32 -1094995529, 1) i32 @read_hybrid_uint(ptr noundef nonnull captures(none) %0, ptr noundef readonly captures(none) %1, i32 noundef %2, ptr noundef nonnull writeonly captures(none) %3) unnamed_addr #5 {
  %5 = load i32, ptr %1, align 4, !tbaa !146
  %6 = shl nuw i32 1, %5
  %7 = icmp ult i32 %2, %6
  br i1 %7, label %.sink.split, label %8

8:                                                ; preds = %4
  %9 = getelementptr inbounds nuw i8, ptr %1, i64 8
  %10 = load i32, ptr %9, align 4, !tbaa !147
  %11 = getelementptr inbounds nuw i8, ptr %1, i64 4
  %12 = load i32, ptr %11, align 4, !tbaa !148
  %13 = add i32 %12, %10
  %14 = sub i32 %5, %13
  %15 = sub nuw i32 %2, %6
  %16 = lshr i32 %15, %13
  %17 = add i32 %14, %16
  %18 = icmp ugt i32 %17, 31
  br i1 %18, label %68, label %19

19:                                               ; preds = %8
  %notmask = shl nsw i32 -1, %10
  %20 = xor i32 %notmask, -1
  %21 = and i32 %2, %20
  %22 = lshr i32 %2, %10
  %23 = shl nuw i32 1, %12
  %24 = add nsw i32 %23, -1
  %25 = and i32 %24, %22
  %26 = or i32 %25, %23
  %27 = shl i32 %26, %17
  %.not.i = icmp eq i32 %17, 0
  br i1 %.not.i, label %get_bits_long.exit, label %28

28:                                               ; preds = %19
  %29 = icmp samesign ult i32 %17, 26
  %30 = getelementptr inbounds nuw i8, ptr %0, i64 16
  %31 = load i32, ptr %30, align 8, !tbaa !65
  %32 = getelementptr inbounds nuw i8, ptr %0, i64 24
  %33 = load i32, ptr %32, align 8, !tbaa !63
  %34 = load ptr, ptr %0, align 8, !tbaa !60
  %35 = lshr i32 %31, 3
  %36 = zext nneg i32 %35 to i64
  %37 = getelementptr inbounds nuw i8, ptr %34, i64 %36
  %38 = load i32, ptr %37, align 1, !tbaa !28
  %39 = and i32 %31, 7
  %40 = lshr i32 %38, %39
  br i1 %29, label %41, label %47

41:                                               ; preds = %28
  %42 = sub nuw nsw i32 32, %17
  %43 = lshr i32 -1, %42
  %44 = and i32 %40, %43
  %45 = add i32 %31, %17
  %46 = tail call i32 @llvm.umin.i32(i32 %33, i32 %45)
  store i32 %46, ptr %30, align 8, !tbaa !65
  br label %get_bits_long.exit

47:                                               ; preds = %28
  %48 = and i32 %40, 65535
  %49 = add i32 %31, 16
  %50 = tail call i32 @llvm.umin.i32(i32 %33, i32 %49)
  store i32 %50, ptr %30, align 8, !tbaa !65
  %51 = add nsw i32 %17, -16
  %52 = lshr i32 %50, 3
  %53 = zext nneg i32 %52 to i64
  %54 = getelementptr inbounds nuw i8, ptr %34, i64 %53
  %55 = load i32, ptr %54, align 1, !tbaa !28
  %56 = and i32 %50, 7
  %57 = lshr i32 %55, %56
  %58 = sub nuw nsw i32 48, %17
  %59 = lshr i32 -1, %58
  %60 = and i32 %57, %59
  %61 = add i32 %51, %50
  %62 = tail call i32 @llvm.umin.i32(i32 %33, i32 %61)
  store i32 %62, ptr %30, align 8, !tbaa !65
  %63 = shl nuw nsw i32 %60, 16
  %64 = or disjoint i32 %63, %48
  br label %get_bits_long.exit

get_bits_long.exit:                               ; preds = %19, %41, %47
  %.0.i = phi i32 [ %44, %41 ], [ %64, %47 ], [ 0, %19 ]
  %65 = or i32 %.0.i, %27
  %66 = shl i32 %65, %10
  %67 = or i32 %66, %21
  br label %.sink.split

.sink.split:                                      ; preds = %4, %get_bits_long.exit
  %.sink = phi i32 [ %67, %get_bits_long.exit ], [ %2, %4 ]
  store i32 %.sink, ptr %3, align 4, !tbaa !9
  br label %68

68:                                               ; preds = %.sink.split, %8
  %.0 = phi i32 [ -1094995529, %8 ], [ 0, %.sink.split ]
  ret i32 %.0
}